target datalayout = "e-m:e-p270:32:32-p271:32:32-p272:64:64-i64:64-i128:128-f80:128-n8:16:32:64-S128"
target triple = "x86_64-pc-linux-gnu"

%struct.gnb_ran_functions_t = type { i32, [6 x %struct.anon.0] }
%struct.anon.0 = type { [6 x i8], i32, ptr }
%struct.e2ap_private_data = type { i32, i32, i32, i32, i32, [6 x i8], ptr, ptr }
%struct._packet_info = type { ptr, ptr, i32, i32, %struct.nstime_t, %struct.nstime_t, %struct.nstime_t, i8, ptr, ptr, ptr, ptr, %struct._address, %struct._address, %struct._address, %struct._address, %struct._address, %struct._address, i32, ptr, i8, [3 x i8], %struct.anon, i32, i32, i32, i32, ptr, i8, ptr, ptr, i16, i16, i32, i32, i16, i32, i32, ptr, ptr, ptr, i8, i8, i16, i16, i16, i32, i16, i16, ptr, ptr, ptr, ptr, ptr, i32, i32 }
%struct.nstime_t = type { i64, i32 }
%struct._address = type { i32, i32, ptr, ptr }
%struct.anon = type { i8, [3 x i8] }
%struct._asn1_ctx_t = type { i32, i32, i8, ptr, ptr, ptr, ptr, ptr, %struct.anon.1, %struct.anon.4, %struct.anon.5, ptr }
%struct.anon.1 = type { i32, i8, i8, i8, ptr, ptr, i32, i32, ptr, ptr, ptr, %union.anon }
%union.anon = type { %struct.anon.2 }
%struct.anon.2 = type { ptr }
%struct.anon.4 = type { ptr, ptr, ptr }
%struct.anon.5 = type { i32, i8, ptr, i32, i32, ptr, ptr, ptr, %union.anon.6 }
%union.anon.6 = type { %struct.anon.7 }
%struct.anon.7 = type { ptr }

@s_gnb_ran_functions_table = internal global %struct.gnb_ran_functions_t zeroinitializer, align 8
@proto_e2ap = internal global i32 0, align 4
@ett_e2ap_GNB_ID_Choice = internal global i32 0, align 4

; Function Attrs: null_pointer_is_valid sspstrong uwtable
define internal void @update_conversation_from_gnb_id(ptr noundef %0) #2 {
  %2 = alloca ptr, align 8
  %3 = alloca ptr, align 8
  %4 = alloca ptr, align 8
  %5 = alloca ptr, align 8
  %6 = alloca ptr, align 8
  %7 = alloca i32, align 4
  %8 = alloca ptr, align 8
  %9 = alloca i32, align 4
  %10 = alloca i32, align 4
  store ptr %0, ptr %2, align 8
  call void @llvm.lifetime.start.p0(i64 8, ptr %3) #10
  %11 = load ptr, ptr %2, align 8
  %12 = getelementptr inbounds nuw %struct._asn1_ctx_t, ptr %11, i32 0, i32 3
  %13 = load ptr, ptr %12, align 8
  store ptr %13, ptr %3, align 8
  call void @llvm.lifetime.start.p0(i64 8, ptr %4) #10
  %14 = load ptr, ptr %3, align 8
  %15 = call ptr @e2ap_get_private_data(ptr noundef %14)
  store ptr %15, ptr %4, align 8
  call void @llvm.lifetime.start.p0(i64 8, ptr %5) #10
  call void @llvm.lifetime.start.p0(i64 8, ptr %6) #10
  store ptr null, ptr %6, align 8
  %16 = load ptr, ptr %3, align 8
  %17 = getelementptr inbounds nuw %struct._packet_info, ptr %16, i32 0, i32 3
  %18 = load i32, ptr %17, align 4
  %19 = load ptr, ptr %3, align 8
  %20 = getelementptr inbounds nuw %struct._packet_info, ptr %19, i32 0, i32 15
  %21 = load ptr, ptr %3, align 8
  %22 = getelementptr inbounds nuw %struct._packet_info, ptr %21, i32 0, i32 14
  %23 = load ptr, ptr %3, align 8
  %24 = getelementptr inbounds nuw %struct._packet_info, ptr %23, i32 0, i32 23
  %25 = load i32, ptr %24, align 8
  %26 = call i32 @conversation_pt_to_endpoint_type(i32 noundef %25)
  %27 = load ptr, ptr %3, align 8
  %28 = getelementptr inbounds nuw %struct._packet_info, ptr %27, i32 0, i32 25
  %29 = load i32, ptr %28, align 8
  %30 = load ptr, ptr %3, align 8
  %31 = getelementptr inbounds nuw %struct._packet_info, ptr %30, i32 0, i32 24
  %32 = load i32, ptr %31, align 4
  %33 = call ptr @find_conversation(i32 noundef %18, ptr noundef %20, ptr noundef %22, i32 noundef %26, i32 noundef %29, i32 noundef %32, i32 noundef 0)
  store ptr %33, ptr %5, align 8
  %34 = load ptr, ptr %5, align 8
  %35 = icmp ne ptr %34, null
  br i1 %35, label %104, label %36

36:                                               ; preds = %1
  %37 = load ptr, ptr %3, align 8
  %38 = getelementptr inbounds nuw %struct._packet_info, ptr %37, i32 0, i32 3
  %39 = load i32, ptr %38, align 4
  %40 = load ptr, ptr %3, align 8
  %41 = getelementptr inbounds nuw %struct._packet_info, ptr %40, i32 0, i32 15
  %42 = load ptr, ptr %3, align 8
  %43 = getelementptr inbounds nuw %struct._packet_info, ptr %42, i32 0, i32 14
  %44 = load ptr, ptr %3, align 8
  %45 = getelementptr inbounds nuw %struct._packet_info, ptr %44, i32 0, i32 23
  %46 = load i32, ptr %45, align 8
  %47 = call i32 @conversation_pt_to_endpoint_type(i32 noundef %46)
  %48 = load ptr, ptr %3, align 8
  %49 = getelementptr inbounds nuw %struct._packet_info, ptr %48, i32 0, i32 25
  %50 = load i32, ptr %49, align 8
  %51 = load ptr, ptr %3, align 8
  %52 = getelementptr inbounds nuw %struct._packet_info, ptr %51, i32 0, i32 24
  %53 = load i32, ptr %52, align 4
  %54 = call ptr @conversation_new(i32 noundef %39, ptr noundef %41, ptr noundef %43, i32 noundef %47, i32 noundef %50, i32 noundef %53, i32 noundef 0)
  store ptr %54, ptr %5, align 8
  %55 = call ptr @wmem_file_scope()
  %56 = call noalias ptr @wmem_alloc0(ptr noundef %55, i64 noundef 8200) #12
  store ptr %56, ptr %6, align 8
  %57 = load ptr, ptr %5, align 8
  %58 = load i32, ptr @proto_e2ap, align 4
  %59 = load ptr, ptr %6, align 8
  call void @conversation_add_proto_data(ptr noundef %57, i32 noundef %58, ptr noundef %59)
  call void @llvm.lifetime.start.p0(i64 4, ptr %7) #10
  %60 = load ptr, ptr %4, align 8
  %61 = getelementptr inbounds nuw %struct.e2ap_private_data, ptr %60, i32 0, i32 4
  %62 = load i32, ptr %61, align 8
  store i32 %62, ptr %7, align 4
  call void @llvm.lifetime.start.p0(i64 8, ptr %8) #10
  %63 = load ptr, ptr %4, align 8
  %64 = getelementptr inbounds nuw %struct.e2ap_private_data, ptr %63, i32 0, i32 5
  %65 = getelementptr [6 x i8], ptr %64, i64 0, i64 0
  store ptr %65, ptr %8, align 8
  call void @llvm.lifetime.start.p0(i64 4, ptr %9) #10
  store i32 0, ptr %9, align 4
  br label %66

66:                                               ; preds = %99, %36
  %67 = load i32, ptr %9, align 4
  %68 = load i32, ptr @s_gnb_ran_functions_table, align 8
  %69 = icmp ult i32 %67, %68
  br i1 %69, label %71, label %70

70:                                               ; preds = %66
  store i32 2, ptr %10, align 4
  br label %102

71:                                               ; preds = %66
  %72 = load i32, ptr %7, align 4
  %73 = load i32, ptr %9, align 4
  %74 = zext i32 %73 to i64
  %75 = getelementptr [6 x %struct.anon.0], ptr getelementptr inbounds nuw (%struct.gnb_ran_functions_t, ptr @s_gnb_ran_functions_table, i32 0, i32 1), i64 0, i64 %74
  %76 = getelementptr inbounds nuw %struct.anon.0, ptr %75, i32 0, i32 1
  store i32 %72, ptr %76, align 8
  %77 = icmp ne i32 %72, 0
  br i1 %77, label %78, label %98

78:                                               ; preds = %71
  %79 = load i32, ptr %9, align 4
  %80 = zext i32 %79 to i64
  %81 = getelementptr [6 x %struct.anon.0], ptr getelementptr inbounds nuw (%struct.gnb_ran_functions_t, ptr @s_gnb_ran_functions_table, i32 0, i32 1), i64 0, i64 %80
  %82 = getelementptr inbounds nuw %struct.anon.0, ptr %81, i32 0, i32 0
  %83 = getelementptr inbounds [6 x i8], ptr %82, i64 0, i64 0
  %84 = load ptr, ptr %8, align 8
  %85 = load i32, ptr %7, align 4
  %86 = zext i32 %85 to i64
  %87 = call i32 @memcmp(ptr noundef %83, ptr noundef %84, i64 noundef %86) #11
  %88 = icmp eq i32 %87, 0
  br i1 %88, label %89, label %98

89:                                               ; preds = %78
  %90 = load i32, ptr %9, align 4
  %91 = zext i32 %90 to i64
  %92 = getelementptr [6 x %struct.anon.0], ptr getelementptr inbounds nuw (%struct.gnb_ran_functions_t, ptr @s_gnb_ran_functions_table, i32 0, i32 1), i64 0, i64 %91
  %93 = getelementptr inbounds nuw %struct.anon.0, ptr %92, i32 0, i32 2
  %94 = load ptr, ptr %93, align 8
  store ptr %94, ptr %6, align 8
  %95 = load ptr, ptr %5, align 8
  %96 = load i32, ptr @proto_e2ap, align 4
  %97 = load ptr, ptr %6, align 8
  call void @conversation_add_proto_data(ptr noundef %95, i32 noundef %96, ptr noundef %97)
  store i32 2, ptr %10, align 4
  br label %102

98:                                               ; preds = %78, %71
  br label %99

99:                                               ; preds = %98
  %100 = load i32, ptr %9, align 4
  %101 = add i32 %100, 1
  store i32 %101, ptr %9, align 4
  br label %66, !llvm.loop !17

102:                                              ; preds = %89, %70
  call void @llvm.lifetime.end.p0(i64 4, ptr %9) #10
  br label %103

103:                                              ; preds = %102
  call void @llvm.lifetime.end.p0(i64 8, ptr %8) #10
  call void @llvm.lifetime.end.p0(i64 4, ptr %7) #10
  br label %104

104:                                              ; preds = %103, %1
  call void @llvm.lifetime.end.p0(i64 8, ptr %6) #10
  call void @llvm.lifetime.end.p0(i64 8, ptr %5) #10
  call void @llvm.lifetime.end.p0(i64 8, ptr %4) #10
  call void @llvm.lifetime.end.p0(i64 8, ptr %3) #10
  ret void
}

; Function Attrs: null_pointer_is_valid sspstrong uwtable
define internal ptr @e2ap_get_private_data(ptr noundef %0) #2 {
  %2 = alloca ptr, align 8
  %3 = alloca ptr, align 8
  store ptr %0, ptr %2, align 8
  call void @llvm.lifetime.start.p0(i64 8, ptr %3) #10
  %4 = load ptr, ptr %2, align 8
  %5 = getelementptr inbounds nuw %struct._packet_info, ptr %4, i32 0, i32 51
  %6 = load ptr, ptr %5, align 8
  %7 = load ptr, ptr %2, align 8
  %8 = load i32, ptr @proto_e2ap, align 4
  %9 = call ptr @p_get_proto_data(ptr noundef %6, ptr noundef %7, i32 noundef %8, i32 noundef 0)
  store ptr %9, ptr %3, align 8
  %10 = load ptr, ptr %3, align 8
  %11 = icmp ne ptr %10, null
  br i1 %11, label %23, label %12

12:                                               ; preds = %1
  %13 = load ptr, ptr %2, align 8
  %14 = getelementptr inbounds nuw %struct._packet_info, ptr %13, i32 0, i32 51
  %15 = load ptr, ptr %14, align 8
  %16 = call noalias ptr @wmem_alloc0(ptr noundef %15, i64 noundef 48) #12
  store ptr %16, ptr %3, align 8
  %17 = load ptr, ptr %2, align 8
  %18 = getelementptr inbounds nuw %struct._packet_info, ptr %17, i32 0, i32 51
  %19 = load ptr, ptr %18, align 8
  %20 = load ptr, ptr %2, align 8
  %21 = load i32, ptr @proto_e2ap, align 4
  %22 = load ptr, ptr %3, align 8
  call void @p_add_proto_data(ptr noundef %19, ptr noundef %20, i32 noundef %21, i32 noundef 0, ptr noundef %22)
  br label %23

23:                                               ; preds = %12, %1
  %24 = load ptr, ptr %3, align 8
  call void @llvm.lifetime.end.p0(i64 8, ptr %3) #10
  ret ptr %24
}

; Function Attrs: null_pointer_is_valid sspstrong uwtable
define internal i32 @dissect_e2ap_GNB_ID_Choice(ptr noundef %0, i32 noundef %1, ptr noundef %2, ptr noundef %3, i32 noundef %4) #2 {
  %6 = alloca ptr, align 8
  %7 = alloca i32, align 4
  %8 = alloca ptr, align 8
  %9 = alloca ptr, align 8
  %10 = alloca i32, align 4
  store ptr %0, ptr %6, align 8
  store i32 %1, ptr %7, align 4
  store ptr %2, ptr %8, align 8
  store ptr %3, ptr %9, align 8
  store i32 %4, ptr %10, align 4
  %11 = load ptr, ptr %6, align 8
  %12 = load i32, ptr %7, align 4
  %13 = load ptr, ptr %8, align 8
  %14 = load ptr, ptr %9, align 8
  %15 = load i32, ptr %10, align 4
  %16 = load i32, ptr @ett_e2ap_GNB_ID_Choice, align 4
  %17 = call i32 @dissect_per_choice(ptr noundef %11, i32 noundef %12, ptr noundef %13, ptr noundef %14, i32 noundef %15, i32 noundef %16, ptr noundef @GNB_ID_Choice_choice, ptr noundef null)
  store i32 %17, ptr %7, align 4
  %18 = load i32, ptr %7, align 4
  ret i32 %18
}

; Function Attrs: null_pointer_is_valid sspstrong uwtable
define internal i32 @dissect_e2ap_T_gnb_id(ptr noundef %0, i32 noundef %1, ptr noundef %2, ptr noundef %3, i32 noundef %4) #2 {
  %6 = alloca ptr, align 8
  %7 = alloca i32, align 4
  %8 = alloca ptr, align 8
  %9 = alloca ptr, align 8
  %10 = alloca i32, align 4
  %11 = alloca i32, align 4
  %12 = alloca ptr, align 8
  store ptr %0, ptr %6, align 8
  store i32 %1, ptr %7, align 4
  store ptr %2, ptr %8, align 8
  store ptr %3, ptr %9, align 8
  store i32 %4, ptr %10, align 4
  call void @llvm.lifetime.start.p0(i64 4, ptr %11) #10
  %13 = load i32, ptr %7, align 4
  store i32 %13, ptr %11, align 4
  %14 = load ptr, ptr %6, align 8
  %15 = load i32, ptr %7, align 4
  %16 = load ptr, ptr %8, align 8
  %17 = load ptr, ptr %9, align 8
  %18 = load i32, ptr %10, align 4
  %19 = call i32 @dissect_e2ap_GNB_ID_Choice(ptr noundef %14, i32 noundef %15, ptr noundef %16, ptr noundef %17, i32 noundef %18)
  store i32 %19, ptr %7, align 4
  call void @llvm.lifetime.start.p0(i64 8, ptr %12) #10
  %20 = load ptr, ptr %8, align 8
  %21 = getelementptr inbounds nuw %struct._asn1_ctx_t, ptr %20, i32 0, i32 3
  %22 = load ptr, ptr %21, align 8
  %23 = call ptr @e2ap_get_private_data(ptr noundef %22)
  store ptr %23, ptr %12, align 8
  %24 = load i32, ptr %7, align 4
  %25 = load i32, ptr %11, align 4
  %26 = sub i32 %24, %25
  %27 = sdiv i32 %26, 8
  %28 = icmp slt i32 %27, 6
  br i1 %28, label %29, label %34

29:                                               ; preds = %5
  %30 = load i32, ptr %7, align 4
  %31 = load i32, ptr %11, align 4
  %32 = sub i32 %30, %31
  %33 = sdiv i32 %32, 8
  br label %35

34:                                               ; preds = %5
  br label %35

35:                                               ; preds = %34, %29
  %36 = phi i32 [ %33, %29 ], [ 6, %34 ]
  %37 = load ptr, ptr %12, align 8
  %38 = getelementptr inbounds nuw %struct.e2ap_private_data, ptr %37, i32 0, i32 4
  store i32 %36, ptr %38, align 8
  %39 = load ptr, ptr %6, align 8
  %40 = load ptr, ptr %12, align 8
  %41 = getelementptr inbounds nuw %struct.e2ap_private_data, ptr %40, i32 0, i32 5
  %42 = load i32, ptr %11, align 4
  %43 = sdiv i32 %42, 8
  %44 = load ptr, ptr %12, align 8
  %45 = getelementptr inbounds nuw %struct.e2ap_private_data, ptr %44, i32 0, i32 4
  %46 = load i32, ptr %45, align 8
  %47 = zext i32 %46 to i64
  %48 = call ptr @tvb_memcpy(ptr noundef %39, ptr noundef %41, i32 noundef %43, i64 noundef %47)
  %49 = load ptr, ptr %8, align 8
  call void @update_conversation_from_gnb_id(ptr noundef %49)
  %50 = load i32, ptr %7, align 4
  call void @llvm.lifetime.end.p0(i64 8, ptr %12) #10
  call void @llvm.lifetime.end.p0(i64 4, ptr %11) #10
  ret i32 %50
}