; Function Attrs: null_pointer_is_valid sspstrong uwtable
define internal i32 @dissect_e2ap_T_gnb_id(ptr noundef %0, i32 noundef %1, ptr noundef %2, ptr noundef %3, i32 noundef %4) #2 {
  %6 = load i32, ptr @ett_e2ap_GNB_ID_Choice, align 4
  %7 = tail call i32 @dissect_per_choice(ptr noundef %0, i32 noundef %1, ptr noundef %2, ptr noundef %3, i32 noundef %4, i32 noundef %6, ptr noundef nonnull @GNB_ID_Choice_choice, ptr noundef null)
  %8 = getelementptr inbounds nuw i8, ptr %2, i64 16
  %9 = load ptr, ptr %8, align 8
  %10 = getelementptr inbounds nuw i8, ptr %9, i64 408
  %11 = load ptr, ptr %10, align 8
  %12 = load i32, ptr @proto_e2ap, align 4
  %13 = tail call ptr @p_get_proto_data(ptr noundef %11, ptr noundef %9, i32 noundef %12, i32 noundef 0)
  %.not.i = icmp eq ptr %13, null
  br i1 %.not.i, label %14, label %e2ap_get_private_data.exit

14:                                               ; preds = %5
  %15 = load ptr, ptr %10, align 8
  %16 = tail call noalias dereferenceable_or_null(48) ptr @wmem_alloc0(ptr noundef %15, i64 noundef 48) #10
  %17 = load ptr, ptr %10, align 8
  %18 = load i32, ptr @proto_e2ap, align 4
  tail call void @p_add_proto_data(ptr noundef %17, ptr noundef %9, i32 noundef %18, i32 noundef 0, ptr noundef %16)
  br label %e2ap_get_private_data.exit

e2ap_get_private_data.exit:                       ; preds = %5, %14
  %.0.i = phi ptr [ %13, %5 ], [ %16, %14 ]
  %19 = sub i32 %7, %1
  %20 = icmp slt i32 %19, 48
  %21 = sdiv i32 %19, 8
  %22 = select i1 %20, i32 %21, i32 6
  %23 = getelementptr inbounds nuw i8, ptr %.0.i, i64 16
  store i32 %22, ptr %23, align 8
  %24 = getelementptr inbounds nuw i8, ptr %.0.i, i64 20
  %25 = sdiv i32 %1, 8
  %26 = zext i32 %22 to i64
  %27 = tail call ptr @tvb_memcpy(ptr noundef %0, ptr noundef nonnull %24, i32 noundef %25, i64 noundef %26)
  %.val = load ptr, ptr %8, align 8
  %28 = getelementptr inbounds nuw i8, ptr %.val, i64 408
  %29 = load ptr, ptr %28, align 8
  %30 = load i32, ptr @proto_e2ap, align 4
  %31 = tail call ptr @p_get_proto_data(ptr noundef %29, ptr noundef %.val, i32 noundef %30, i32 noundef 0)
  %.not.i.i = icmp eq ptr %31, null
  br i1 %.not.i.i, label %32, label %e2ap_get_private_data.exit.i

32:                                               ; preds = %e2ap_get_private_data.exit
  %33 = load ptr, ptr %28, align 8
  %34 = tail call noalias dereferenceable_or_null(48) ptr @wmem_alloc0(ptr noundef %33, i64 noundef 48) #10
  %35 = load ptr, ptr %28, align 8
  %36 = load i32, ptr @proto_e2ap, align 4
  tail call void @p_add_proto_data(ptr noundef %35, ptr noundef %.val, i32 noundef %36, i32 noundef 0, ptr noundef %34)
  br label %e2ap_get_private_data.exit.i

e2ap_get_private_data.exit.i:                     ; preds = %32, %e2ap_get_private_data.exit
  %.0.i.i = phi ptr [ %31, %e2ap_get_private_data.exit ], [ %34, %32 ]
  %37 = getelementptr inbounds nuw i8, ptr %.val, i64 20
  %38 = load i32, ptr %37, align 4
  %39 = getelementptr inbounds nuw i8, ptr %.val, i64 184
  %40 = getelementptr inbounds nuw i8, ptr %.val, i64 160
  %41 = getelementptr inbounds nuw i8, ptr %.val, i64 280
  %42 = load i32, ptr %41, align 8
  %43 = tail call i32 @conversation_pt_to_endpoint_type(i32 noundef %42)
  %44 = getelementptr inbounds nuw i8, ptr %.val, i64 288
  %45 = load i32, ptr %44, align 8
  %46 = getelementptr inbounds nuw i8, ptr %.val, i64 284
  %47 = load i32, ptr %46, align 4
  %48 = tail call ptr @find_conversation(i32 noundef %38, ptr noundef nonnull %39, ptr noundef nonnull %40, i32 noundef %43, i32 noundef %45, i32 noundef %47, i32 noundef 0)
  %.not.i17 = icmp eq ptr %48, null
  br i1 %.not.i17, label %49, label %update_conversation_from_gnb_id.exit

49:                                               ; preds = %e2ap_get_private_data.exit.i
  %50 = load i32, ptr %37, align 4
  %51 = load i32, ptr %41, align 8
  %52 = tail call i32 @conversation_pt_to_endpoint_type(i32 noundef %51)
  %53 = load i32, ptr %44, align 8
  %54 = load i32, ptr %46, align 4
  %55 = tail call ptr @conversation_new(i32 noundef %50, ptr noundef nonnull %39, ptr noundef nonnull %40, i32 noundef %52, i32 noundef %53, i32 noundef %54, i32 noundef 0)
  %56 = tail call ptr @wmem_file_scope()
  %57 = tail call noalias dereferenceable_or_null(8200) ptr @wmem_alloc0(ptr noundef %56, i64 noundef 8200) #10
  %58 = load i32, ptr @proto_e2ap, align 4
  tail call void @conversation_add_proto_data(ptr noundef %55, i32 noundef %58, ptr noundef %57)
  %59 = getelementptr inbounds nuw i8, ptr %.0.i.i, i64 16
  %60 = load i32, ptr %59, align 8
  %61 = getelementptr inbounds nuw i8, ptr %.0.i.i, i64 20
  %62 = load i32, ptr @s_gnb_ran_functions_table, align 8
  %.not2.i = icmp eq i32 %62, 0
  br i1 %.not2.i, label %update_conversation_from_gnb_id.exit, label %.lr.ph.i

.lr.ph.i:                                         ; preds = %49
  %.not29.i = icmp eq i32 %60, 0
  %63 = zext i32 %60 to i64
  %wide.trip.count9.i = zext i32 %62 to i64
  br i1 %.not29.i, label %.lr.ph.split.us.i, label %.lr.ph.split.i

.lr.ph.split.us.i:                                ; preds = %.lr.ph.i, %.lr.ph.split.us.i
  %indvars.iv6.i = phi i64 [ %indvars.iv.next7.i, %.lr.ph.split.us.i ], [ 0, %.lr.ph.i ]
  %gep.i = getelementptr [6 x %struct.anon.0], ptr getelementptr inbounds nuw (i8, ptr @s_gnb_ran_functions_table, i64 16), i64 0, i64 %indvars.iv6.i
  store i32 0, ptr %gep.i, align 8
  %indvars.iv.next7.i = add nuw nsw i64 %indvars.iv6.i, 1
  %exitcond10.not.i = icmp eq i64 %indvars.iv.next7.i, %wide.trip.count9.i
  br i1 %exitcond10.not.i, label %update_conversation_from_gnb_id.exit, label %.lr.ph.split.us.i, !llvm.loop !19

.lr.ph.split.i:                                   ; preds = %.lr.ph.i, %71
  %indvars.iv.i = phi i64 [ %indvars.iv.next.i, %71 ], [ 0, %.lr.ph.i ]
  %64 = getelementptr [6 x %struct.anon.0], ptr getelementptr inbounds nuw (i8, ptr @s_gnb_ran_functions_table, i64 8), i64 0, i64 %indvars.iv.i
  %65 = getelementptr inbounds nuw i8, ptr %64, i64 8
  store i32 %60, ptr %65, align 8
  %bcmp.i = tail call i32 @bcmp(ptr %64, ptr nonnull %61, i64 %63)
  %66 = icmp eq i32 %bcmp.i, 0
  br i1 %66, label %67, label %71

67:                                               ; preds = %.lr.ph.split.i
  %68 = getelementptr inbounds nuw i8, ptr %64, i64 16
  %69 = load ptr, ptr %68, align 8
  %70 = load i32, ptr @proto_e2ap, align 4
  tail call void @conversation_add_proto_data(ptr noundef %55, i32 noundef %70, ptr noundef %69)
  br label %update_conversation_from_gnb_id.exit

71:                                               ; preds = %.lr.ph.split.i
  %indvars.iv.next.i = add nuw nsw i64 %indvars.iv.i, 1
  %exitcond.not.i = icmp eq i64 %indvars.iv.next.i, %wide.trip.count9.i
  br i1 %exitcond.not.i, label %update_conversation_from_gnb_id.exit, label %.lr.ph.split.i, !llvm.loop !19

update_conversation_from_gnb_id.exit:             ; preds = %71, %.lr.ph.split.us.i, %e2ap_get_private_data.exit.i, %49, %67
  ret i32 %7
}